target datalayout = "e-m:e-p270:32:32-p271:32:32-p272:64:64-i64:64-i128:128-f80:128-n8:16:32:64-S128"
target triple = "x86_64-pc-linux-gnu"

%struct.SDL_VideoDevice = type { ptr, ptr, ptr, ptr, ptr, ptr, ptr, ptr, ptr, ptr, ptr, ptr, ptr, ptr, ptr, ptr, ptr, ptr, ptr, ptr, ptr, ptr, ptr, ptr, ptr, ptr, ptr, ptr, ptr, ptr, ptr, ptr, ptr, ptr, ptr, ptr, ptr, ptr, ptr, ptr, ptr, ptr, ptr, ptr, ptr, ptr, ptr, ptr, ptr, ptr, ptr, ptr, ptr, ptr, ptr, ptr, ptr, ptr, ptr, ptr, ptr, ptr, ptr, ptr, ptr, ptr, ptr, ptr, ptr, ptr, ptr, ptr, ptr, ptr, ptr, ptr, ptr, ptr, ptr, ptr, ptr, ptr, ptr, ptr, ptr, ptr, ptr, ptr, ptr, ptr, ptr, ptr, ptr, ptr, ptr, ptr, ptr, i64, i8, i8, i8, ptr, i32, ptr, %struct.SDL_Rect, ptr, ptr, i32, ptr, ptr, ptr, ptr, i64, ptr, i8, i32, i32, %struct.anon, ptr, ptr, ptr, ptr, ptr, ptr, %struct.SDL_AtomicInt, %struct.SDL_AtomicInt, i8, %struct.anon.0, ptr, ptr, ptr, ptr, ptr }
%struct.SDL_Rect = type { i32, i32, i32, i32 }
%struct.anon = type { i32, i32, i32, i32, i32, i32, i32, i32, i32, i32, i32, i32, i32, i32, i32, i32, i32, i32, i32, i32, i32, i32, i32, i32, i32, i32, i32, i32, i32, [256 x i8], ptr }
%struct.SDL_AtomicInt = type { i32 }
%struct.anon.0 = type { ptr, ptr, i32, [256 x i8], ptr }

@SDL_GetTextMimeTypes.text_mime_types = internal global [1 x ptr] [ptr @.str.6], align 8

; Function Attrs: nounwind uwtable
define hidden zeroext i1 @SDL_ClearClipboardData_REAL() #0 {
  %1 = call zeroext i1 @SDL_SetClipboardData_REAL(ptr noundef null, ptr noundef null, ptr noundef null, ptr noundef null, i64 noundef 0)
  ret i1 %1
}

; Function Attrs: nounwind uwtable
define internal ptr @SDL_GetTextMimeTypes(ptr noundef %0, ptr noundef %1) #0 {
  %3 = alloca ptr, align 8
  %4 = alloca ptr, align 8
  %5 = alloca ptr, align 8
  store ptr %0, ptr %4, align 8
  store ptr %1, ptr %5, align 8
  %6 = load ptr, ptr %4, align 8
  %7 = getelementptr inbounds nuw %struct.SDL_VideoDevice, ptr %6, i32 0, i32 83
  %8 = load ptr, ptr %7, align 8
  %9 = icmp ne ptr %8, null
  br i1 %9, label %10, label %17

10:                                               ; preds = %2
  %11 = load ptr, ptr %4, align 8
  %12 = getelementptr inbounds nuw %struct.SDL_VideoDevice, ptr %11, i32 0, i32 83
  %13 = load ptr, ptr %12, align 8
  %14 = load ptr, ptr %4, align 8
  %15 = load ptr, ptr %5, align 8
  %16 = call ptr %13(ptr noundef %14, ptr noundef %15)
  store ptr %16, ptr %3, align 8
  br label %19

17:                                               ; preds = %2
  %18 = load ptr, ptr %5, align 8
  store i64 1, ptr %18, align 8
  store ptr @SDL_GetTextMimeTypes.text_mime_types, ptr %3, align 8
  br label %19

19:                                               ; preds = %17, %10
  %20 = load ptr, ptr %3, align 8
  ret ptr %20
}

; Function Attrs: nounwind uwtable
define hidden zeroext i1 @SDL_SetClipboardText_REAL(ptr noundef %0) #0 {
  %2 = alloca i1, align 1
  %3 = alloca ptr, align 8
  %4 = alloca ptr, align 8
  %5 = alloca i64, align 8
  %6 = alloca ptr, align 8
  %7 = alloca i32, align 4
  store ptr %0, ptr %3, align 8
  call void @llvm.lifetime.start.p0(i64 8, ptr %4) #5
  %8 = call ptr @SDL_GetVideoDevice()
  store ptr %8, ptr %4, align 8
  call void @llvm.lifetime.start.p0(i64 8, ptr %5) #5
  call void @llvm.lifetime.start.p0(i64 8, ptr %6) #5
  %9 = load ptr, ptr %4, align 8
  %10 = icmp ne ptr %9, null
  br i1 %10, label %13, label %11

11:                                               ; preds = %1
  %12 = call zeroext i1 @SDL_UninitializedVideo()
  store i1 %12, ptr %2, align 1
  store i32 1, ptr %7, align 4
  br label %31

13:                                               ; preds = %1
  %14 = load ptr, ptr %3, align 8
  %15 = icmp ne ptr %14, null
  br i1 %15, label %16, label %29

16:                                               ; preds = %13
  %17 = load ptr, ptr %3, align 8
  %18 = load i8, ptr %17, align 1
  %19 = sext i8 %18 to i32
  %20 = icmp ne i32 %19, 0
  br i1 %20, label %21, label %29

21:                                               ; preds = %16
  %22 = load ptr, ptr %4, align 8
  %23 = call ptr @SDL_GetTextMimeTypes(ptr noundef %22, ptr noundef %5)
  store ptr %23, ptr %6, align 8
  %24 = load ptr, ptr %3, align 8
  %25 = call noalias ptr @SDL_strdup_REAL(ptr noundef %24)
  %26 = load ptr, ptr %6, align 8
  %27 = load i64, ptr %5, align 8
  %28 = call zeroext i1 @SDL_SetClipboardData_REAL(ptr noundef @SDL_ClipboardTextCallback, ptr noundef @SDL_free_REAL, ptr noundef %25, ptr noundef %26, i64 noundef %27)
  store i1 %28, ptr %2, align 1
  store i32 1, ptr %7, align 4
  br label %31

29:                                               ; preds = %16, %13
  %30 = call zeroext i1 @SDL_ClearClipboardData_REAL()
  store i1 %30, ptr %2, align 1
  store i32 1, ptr %7, align 4
  br label %31

31:                                               ; preds = %29, %21, %11
  call void @llvm.lifetime.end.p0(i64 8, ptr %6) #5
  call void @llvm.lifetime.end.p0(i64 8, ptr %5) #5
  call void @llvm.lifetime.end.p0(i64 8, ptr %4) #5
  %32 = load i1, ptr %2, align 1
  ret i1 %32
}