; Function Attrs: nounwind uwtable
define hidden zeroext i1 @SDL_SetClipboardText_REAL(ptr noundef %0) local_unnamed_addr #0 {
  %2 = alloca i64, align 8
  %3 = tail call ptr @SDL_GetVideoDevice() #6
  call void @llvm.lifetime.start.p0(i64 8, ptr nonnull %2) #6
  %.not = icmp eq ptr %3, null
  br i1 %.not, label %4, label %6

4:                                                ; preds = %1
  %5 = tail call zeroext i1 @SDL_UninitializedVideo() #6
  br label %20

6:                                                ; preds = %1
  %.not9 = icmp eq ptr %0, null
  br i1 %.not9, label %18, label %7

7:                                                ; preds = %6
  %8 = load i8, ptr %0, align 1
  %.not10 = icmp eq i8 %8, 0
  br i1 %.not10, label %18, label %9

9:                                                ; preds = %7
  %10 = getelementptr inbounds nuw i8, ptr %3, i64 664
  %11 = load ptr, ptr %10, align 8
  %.not.i = icmp eq ptr %11, null
  br i1 %.not.i, label %14, label %12

12:                                               ; preds = %9
  %13 = call ptr %11(ptr noundef nonnull %3, ptr noundef nonnull %2) #6
  br label %SDL_GetTextMimeTypes.exit

14:                                               ; preds = %9
  store i64 1, ptr %2, align 8
  br label %SDL_GetTextMimeTypes.exit

SDL_GetTextMimeTypes.exit:                        ; preds = %12, %14
  %.0.i = phi ptr [ %13, %12 ], [ @SDL_GetTextMimeTypes.text_mime_types, %14 ]
  %15 = call noalias ptr @SDL_strdup_REAL(ptr noundef nonnull %0) #6
  %16 = load i64, ptr %2, align 8
  %17 = call zeroext i1 @SDL_SetClipboardData_REAL(ptr noundef nonnull @SDL_ClipboardTextCallback, ptr noundef nonnull @SDL_free_REAL, ptr noundef %15, ptr noundef %.0.i, i64 noundef %16)
  br label %20

18:                                               ; preds = %7, %6
  %19 = tail call zeroext i1 @SDL_SetClipboardData_REAL(ptr noundef null, ptr noundef null, ptr noundef null, ptr noundef null, i64 noundef 0)
  br label %20

20:                                               ; preds = %18, %SDL_GetTextMimeTypes.exit, %4
  %.0 = phi i1 [ %17, %SDL_GetTextMimeTypes.exit ], [ %19, %18 ], [ %5, %4 ]
  call void @llvm.lifetime.end.p0(i64 8, ptr nonnull %2) #6
  ret i1 %.0
}